; ModuleID = '20/206.c'
source_filename = "20/206.c"
target datalayout = "e-m:e-p270:32:32-p271:32:32-p272:64:64-i64:64-f80:128-n8:16:32:64-S128"
target triple = "x86_64-pc-linux-gnu"

@.str = private unnamed_addr constant [6 x i8] c"%s %s\00", align 1
@.str.1 = private unnamed_addr constant [3 x i8] c"%c\00", align 1
@.str.2 = private unnamed_addr constant [2 x i8] c"\0A\00", align 1

; Function Attrs: noinline nounwind uwtable
define dso_local void @main() #0 {
  %1 = alloca i32, align 4
  %2 = alloca i32, align 4
  %3 = alloca i32, align 4
  %4 = alloca i8, align 1
  %5 = alloca [800 x i8], align 16
  %6 = alloca [4 x i8], align 1
  %7 = alloca [800 x i8], align 16
  %8 = alloca i8, align 1
  br label %9

9:                                                ; preds = %130, %0
  %10 = getelementptr inbounds [800 x i8], [800 x i8]* %5, i64 0, i64 0
  %11 = getelementptr inbounds [4 x i8], [4 x i8]* %6, i64 0, i64 0
  %12 = call i32 (i8*, ...) @__isoc99_scanf(i8* getelementptr inbounds ([6 x i8], [6 x i8]* @.str, i64 0, i64 0), i8* %10, i8* %11)
  %13 = icmp ne i32 %12, -1
  br i1 %13, label %14, label %132

14:                                               ; preds = %9
  %15 = getelementptr inbounds [800 x i8], [800 x i8]* %5, i64 0, i64 0
  %16 = call i64 @strlen(i8* %15) #3
  %17 = trunc i64 %16 to i32
  store i32 %17, i32* %3, align 4
  %18 = getelementptr inbounds [800 x i8], [800 x i8]* %5, i64 0, i64 0
  %19 = load i8, i8* %18, align 16
  store i8 %19, i8* %8, align 1
  store i32 0, i32* %1, align 4
  br label %20

20:                                               ; preds = %39, %14
  %21 = load i32, i32* %1, align 4
  %22 = load i32, i32* %3, align 4
  %23 = icmp slt i32 %21, %22
  br i1 %23, label %24, label %42

24:                                               ; preds = %20
  %25 = load i32, i32* %1, align 4
  %26 = sext i32 %25 to i64
  %27 = getelementptr inbounds [800 x i8], [800 x i8]* %5, i64 0, i64 %26
  %28 = load i8, i8* %27, align 1
  %29 = sext i8 %28 to i32
  %30 = load i8, i8* %8, align 1
  %31 = sext i8 %30 to i32
  %32 = icmp sgt i32 %29, %31
  br i1 %32, label %33, label %38

33:                                               ; preds = %24
  %34 = load i32, i32* %1, align 4
  %35 = sext i32 %34 to i64
  %36 = getelementptr inbounds [800 x i8], [800 x i8]* %5, i64 0, i64 %35
  %37 = load i8, i8* %36, align 1
  store i8 %37, i8* %8, align 1
  br label %38

38:                                               ; preds = %33, %24
  br label %39

39:                                               ; preds = %38
  %40 = load i32, i32* %1, align 4
  %41 = add nsw i32 %40, 1
  store i32 %41, i32* %1, align 4
  br label %20

42:                                               ; preds = %20
  store i32 0, i32* %1, align 4
  br label %43

43:                                               ; preds = %58, %42
  %44 = load i32, i32* %1, align 4
  %45 = load i32, i32* %3, align 4
  %46 = icmp slt i32 %44, %45
  br i1 %46, label %47, label %61

47:                                               ; preds = %43
  %48 = load i32, i32* %1, align 4
  %49 = sext i32 %48 to i64
  %50 = getelementptr inbounds [800 x i8], [800 x i8]* %5, i64 0, i64 %49
  %51 = load i8, i8* %50, align 1
  %52 = sext i8 %51 to i32
  %53 = load i8, i8* %8, align 1
  %54 = sext i8 %53 to i32
  %55 = icmp eq i32 %52, %54
  br i1 %55, label %56, label %57

56:                                               ; preds = %47
  br label %61

57:                                               ; preds = %47
  br label %58

58:                                               ; preds = %57
  %59 = load i32, i32* %1, align 4
  %60 = add nsw i32 %59, 1
  store i32 %60, i32* %1, align 4
  br label %43

61:                                               ; preds = %56, %43
  store i32 0, i32* %2, align 4
  br label %62

62:                                               ; preds = %74, %61
  %63 = load i32, i32* %2, align 4
  %64 = load i32, i32* %1, align 4
  %65 = icmp sle i32 %63, %64
  br i1 %65, label %66, label %77

66:                                               ; preds = %62
  %67 = load i32, i32* %2, align 4
  %68 = sext i32 %67 to i64
  %69 = getelementptr inbounds [800 x i8], [800 x i8]* %5, i64 0, i64 %68
  %70 = load i8, i8* %69, align 1
  %71 = load i32, i32* %2, align 4
  %72 = sext i32 %71 to i64
  %73 = getelementptr inbounds [800 x i8], [800 x i8]* %7, i64 0, i64 %72
  store i8 %70, i8* %73, align 1
  br label %74

74:                                               ; preds = %66
  %75 = load i32, i32* %2, align 4
  %76 = add nsw i32 %75, 1
  store i32 %76, i32* %2, align 4
  br label %62

77:                                               ; preds = %62
  %78 = load i32, i32* %1, align 4
  %79 = add nsw i32 %78, 1
  store i32 %79, i32* %2, align 4
  br label %80

80:                                               ; preds = %93, %77
  %81 = load i32, i32* %2, align 4
  %82 = load i32, i32* %3, align 4
  %83 = icmp slt i32 %81, %82
  br i1 %83, label %84, label %96

84:                                               ; preds = %80
  %85 = load i32, i32* %2, align 4
  %86 = sext i32 %85 to i64
  %87 = getelementptr inbounds [800 x i8], [800 x i8]* %5, i64 0, i64 %86
  %88 = load i8, i8* %87, align 1
  %89 = load i32, i32* %2, align 4
  %90 = add nsw i32 %89, 3
  %91 = sext i32 %90 to i64
  %92 = getelementptr inbounds [800 x i8], [800 x i8]* %7, i64 0, i64 %91
  store i8 %88, i8* %92, align 1
  br label %93

93:                                               ; preds = %84
  %94 = load i32, i32* %2, align 4
  %95 = add nsw i32 %94, 1
  store i32 %95, i32* %2, align 4
  br label %80

96:                                               ; preds = %80
  %97 = getelementptr inbounds [4 x i8], [4 x i8]* %6, i64 0, i64 0
  %98 = load i8, i8* %97, align 1
  %99 = load i32, i32* %1, align 4
  %100 = add nsw i32 %99, 1
  %101 = sext i32 %100 to i64
  %102 = getelementptr inbounds [800 x i8], [800 x i8]* %7, i64 0, i64 %101
  store i8 %98, i8* %102, align 1
  %103 = getelementptr inbounds [4 x i8], [4 x i8]* %6, i64 0, i64 1
  %104 = load i8, i8* %103, align 1
  %105 = load i32, i32* %1, align 4
  %106 = add nsw i32 %105, 2
  %107 = sext i32 %106 to i64
  %108 = getelementptr inbounds [800 x i8], [800 x i8]* %7, i64 0, i64 %107
  store i8 %104, i8* %108, align 1
  %109 = getelementptr inbounds [4 x i8], [4 x i8]* %6, i64 0, i64 2
  %110 = load i8, i8* %109, align 1
  %111 = load i32, i32* %1, align 4
  %112 = add nsw i32 %111, 3
  %113 = sext i32 %112 to i64
  %114 = getelementptr inbounds [800 x i8], [800 x i8]* %7, i64 0, i64 %113
  store i8 %110, i8* %114, align 1
  store i32 0, i32* %1, align 4
  br label %115

115:                                              ; preds = %127, %96
  %116 = load i32, i32* %1, align 4
  %117 = load i32, i32* %3, align 4
  %118 = add nsw i32 %117, 3
  %119 = icmp slt i32 %116, %118
  br i1 %119, label %120, label %130

120:                                              ; preds = %115
  %121 = load i32, i32* %1, align 4
  %122 = sext i32 %121 to i64
  %123 = getelementptr inbounds [800 x i8], [800 x i8]* %7, i64 0, i64 %122
  %124 = load i8, i8* %123, align 1
  %125 = sext i8 %124 to i32
  %126 = call i32 (i8*, ...) @printf(i8* getelementptr inbounds ([3 x i8], [3 x i8]* @.str.1, i64 0, i64 0), i32 %125)
  br label %127

127:                                              ; preds = %120
  %128 = load i32, i32* %1, align 4
  %129 = add nsw i32 %128, 1
  store i32 %129, i32* %1, align 4
  br label %115

130:                                              ; preds = %115
  %131 = call i32 (i8*, ...) @printf(i8* getelementptr inbounds ([2 x i8], [2 x i8]* @.str.2, i64 0, i64 0))
  br label %9

132:                                              ; preds = %9
  ret void
}

declare dso_local i32 @__isoc99_scanf(i8*, ...) #1

; Function Attrs: nounwind readonly
declare dso_local i64 @strlen(i8*) #2

declare dso_local i32 @printf(i8*, ...) #1


!llvm.module.flags = !{!0}
!llvm.ident = !{!1}

!0 = !{i32 1, !"wchar_size", i32 4}
!1 = !{!"clang version 10.0.0-4ubuntu1 "}
